; Function Attrs: mustprogress nounwind uwtable
define hidden noundef i32 @stbi_write_png(ptr nocapture noundef readonly %0, i32 noundef %1, i32 noundef %2, i32 noundef %3, ptr nocapture noundef readonly %4, i32 noundef %5) local_unnamed_addr #4 {
  %7 = alloca i32, align 4
  %8 = call noundef ptr @_Z21stbi_write_png_to_memPhiiiiPi(ptr noundef %4, i32 noundef %5, i32 noundef %1, i32 noundef %2, i32 noundef %3, ptr noundef nonnull %7)
  %.not = icmp eq ptr %8, null
  br i1 %.not, label %16, label %9

9:                                                ; preds = %6
  %10 = tail call noalias ptr @fopen(ptr noundef %0, ptr noundef nonnull @.str.5)
  %.not15 = icmp eq ptr %10, null
  br i1 %.not15, label %.sink.split, label %11

11:                                               ; preds = %9
  %12 = load i32, ptr %7, align 4
  %13 = sext i32 %12 to i64
  %14 = tail call i64 @fwrite(ptr noundef nonnull %8, i64 noundef 1, i64 noundef %13, ptr noundef nonnull %10)
  %15 = tail call i32 @fclose(ptr noundef nonnull %10)
  br label %.sink.split

.sink.split:                                      ; preds = %9, %11
  %.0.ph = phi i32 [ 1, %11 ], [ 0, %9 ]
  tail call void @free(ptr noundef nonnull %8) #26
  br label %16

16:                                               ; preds = %.sink.split, %6
  %.0 = phi i32 [ 0, %6 ], [ %.0.ph, %.sink.split ]
  ret i32 %.0
}